target datalayout = "e-m:e-p270:32:32-p271:32:32-p272:64:64-i64:64-i128:128-f80:128-n8:16:32:64-S128"
target triple = "x86_64-pc-linux-gnu"

%struct.jzfile = type { ptr, i32, i64, ptr, i64, i64, i8, i8, %struct.cencache, i32, ptr, ptr, i32, ptr, ptr, i32, ptr, i32, ptr, ptr, ptr, i32, i32, i64, i64 }
%struct.cencache = type { ptr, i64 }

@.str = private unnamed_addr constant [23 x i8] c"zip file name too long\00", align 1
@zfiles_lock = internal global ptr null, align 8
@zfiles = internal global ptr null, align 8
@InitializeZip.inited = internal global i8 0, align 1

; Function Attrs: nounwind uwtable
define internal i32 @InitializeZip() #0 {
  %1 = alloca i32, align 4
  %2 = call ptr @__errno_location() #13
  store i32 0, ptr %2, align 4
  %3 = load i8, ptr @InitializeZip.inited, align 1
  %4 = icmp ne i8 %3, 0
  br i1 %4, label %5, label %6

5:                                                ; preds = %0
  store i32 0, ptr %1, align 4
  br label %12

6:                                                ; preds = %0
  %7 = call ptr @JVM_RawMonitorCreate()
  store ptr %7, ptr @zfiles_lock, align 8
  %8 = load ptr, ptr @zfiles_lock, align 8
  %9 = icmp eq ptr %8, null
  br i1 %9, label %10, label %11

10:                                               ; preds = %6
  store i32 -1, ptr %1, align 4
  br label %12

11:                                               ; preds = %6
  store i8 1, ptr @InitializeZip.inited, align 1
  store i32 0, ptr %1, align 4
  br label %12

12:                                               ; preds = %11, %10, %5
  %13 = load i32, ptr %1, align 4
  ret i32 %13
}

; Function Attrs: nounwind uwtable
define hidden ptr @ZIP_Get_From_Cache(ptr noundef %0, ptr noundef %1, i64 noundef %2) #0 {
  %4 = alloca ptr, align 8
  %5 = alloca ptr, align 8
  %6 = alloca ptr, align 8
  %7 = alloca i64, align 8
  %8 = alloca [4096 x i8], align 16
  %9 = alloca ptr, align 8
  store ptr %0, ptr %5, align 8
  store ptr %1, ptr %6, align 8
  store i64 %2, ptr %7, align 8
  %10 = call i32 @InitializeZip()
  %11 = icmp ne i32 %10, 0
  br i1 %11, label %12, label %13

12:                                               ; preds = %3
  store ptr null, ptr %4, align 8
  br label %77

13:                                               ; preds = %3
  %14 = load ptr, ptr %6, align 8
  %15 = icmp ne ptr %14, null
  br i1 %15, label %16, label %18

16:                                               ; preds = %13
  %17 = load ptr, ptr %6, align 8
  store ptr null, ptr %17, align 8
  br label %18

18:                                               ; preds = %16, %13
  %19 = load ptr, ptr %5, align 8
  %20 = call i64 @strlen(ptr noundef %19) #10
  %21 = icmp uge i64 %20, 4096
  br i1 %21, label %22, label %28

22:                                               ; preds = %18
  %23 = load ptr, ptr %6, align 8
  %24 = icmp ne ptr %23, null
  br i1 %24, label %25, label %27

25:                                               ; preds = %22
  %26 = load ptr, ptr %6, align 8
  store ptr @.str, ptr %26, align 8
  br label %27

27:                                               ; preds = %25, %22
  store ptr null, ptr %4, align 8
  br label %77

28:                                               ; preds = %18
  %29 = getelementptr inbounds [4096 x i8], ptr %8, i64 0, i64 0
  %30 = load ptr, ptr %5, align 8
  %31 = call ptr @strcpy(ptr noundef %29, ptr noundef %30) #11
  %32 = getelementptr inbounds [4096 x i8], ptr %8, i64 0, i64 0
  %33 = call ptr @JVM_NativePath(ptr noundef %32)
  %34 = getelementptr inbounds [4096 x i8], ptr %8, i64 0, i64 0
  store ptr %34, ptr %5, align 8
  %35 = load ptr, ptr @zfiles_lock, align 8
  %36 = call i32 @JVM_RawMonitorEnter(ptr noundef %35)
  %37 = load ptr, ptr @zfiles, align 8
  store ptr %37, ptr %9, align 8
  br label %38

38:                                               ; preds = %70, %28
  %39 = load ptr, ptr %9, align 8
  %40 = icmp ne ptr %39, null
  br i1 %40, label %41, label %74

41:                                               ; preds = %38
  %42 = load ptr, ptr %5, align 8
  %43 = load ptr, ptr %9, align 8
  %44 = getelementptr inbounds %struct.jzfile, ptr %43, i32 0, i32 0
  %45 = load ptr, ptr %44, align 8
  %46 = call i32 @strcmp(ptr noundef %42, ptr noundef %45) #10
  %47 = icmp eq i32 %46, 0
  br i1 %47, label %48, label %69

48:                                               ; preds = %41
  %49 = load ptr, ptr %9, align 8
  %50 = getelementptr inbounds %struct.jzfile, ptr %49, i32 0, i32 23
  %51 = load i64, ptr %50, align 8
  %52 = load i64, ptr %7, align 8
  %53 = icmp eq i64 %51, %52
  br i1 %53, label %59, label %54

54:                                               ; preds = %48
  %55 = load ptr, ptr %9, align 8
  %56 = getelementptr inbounds %struct.jzfile, ptr %55, i32 0, i32 23
  %57 = load i64, ptr %56, align 8
  %58 = icmp eq i64 %57, 0
  br i1 %58, label %59, label %69

59:                                               ; preds = %54, %48
  %60 = load ptr, ptr %9, align 8
  %61 = getelementptr inbounds %struct.jzfile, ptr %60, i32 0, i32 1
  %62 = load i32, ptr %61, align 8
  %63 = icmp slt i32 %62, 65535
  br i1 %63, label %64, label %69

64:                                               ; preds = %59
  %65 = load ptr, ptr %9, align 8
  %66 = getelementptr inbounds %struct.jzfile, ptr %65, i32 0, i32 1
  %67 = load i32, ptr %66, align 8
  %68 = add nsw i32 %67, 1
  store i32 %68, ptr %66, align 8
  br label %74

69:                                               ; preds = %59, %54, %41
  br label %70

70:                                               ; preds = %69
  %71 = load ptr, ptr %9, align 8
  %72 = getelementptr inbounds %struct.jzfile, ptr %71, i32 0, i32 18
  %73 = load ptr, ptr %72, align 8
  store ptr %73, ptr %9, align 8
  br label %38, !llvm.loop !6

74:                                               ; preds = %64, %38
  %75 = load ptr, ptr @zfiles_lock, align 8
  call void @JVM_RawMonitorExit(ptr noundef %75)
  %76 = load ptr, ptr %9, align 8
  store ptr %76, ptr %4, align 8
  br label %77

77:                                               ; preds = %74, %27, %12
  %78 = load ptr, ptr %4, align 8
  ret ptr %78
}