; Function Attrs: nounwind uwtable
define hidden noundef ptr @ZIP_Get_From_Cache(ptr nocapture noundef readonly %0, ptr noundef writeonly %1, i64 noundef %2) local_unnamed_addr #0 {
  %4 = alloca [4096 x i8], align 16
  %5 = tail call ptr @__errno_location() #22
  store i32 0, ptr %5, align 4
  %.b.i = load i1, ptr @InitializeZip.inited, align 1
  br i1 %.b.i, label %10, label %6

6:                                                ; preds = %3
  %7 = tail call ptr @JVM_RawMonitorCreate() #21
  store ptr %7, ptr @zfiles_lock, align 8
  %8 = icmp eq ptr %7, null
  br i1 %8, label %InitializeZip.exit, label %9

9:                                                ; preds = %6
  store i1 true, ptr @InitializeZip.inited, align 1
  br label %10

10:                                               ; preds = %9, %3
  %.not20 = icmp eq ptr %1, null
  br i1 %.not20, label %11, label %.thread

11:                                               ; preds = %10
  %12 = tail call i64 @strlen(ptr noundef nonnull dereferenceable(1) %0) #23
  %13 = icmp ugt i64 %12, 4095
  br i1 %13, label %InitializeZip.exit, label %17

.thread:                                          ; preds = %10
  store ptr null, ptr %1, align 8
  %14 = tail call i64 @strlen(ptr noundef nonnull dereferenceable(1) %0) #23
  %15 = icmp ugt i64 %14, 4095
  br i1 %15, label %16, label %17

16:                                               ; preds = %.thread
  store ptr @.str, ptr %1, align 8
  br label %InitializeZip.exit

17:                                               ; preds = %.thread, %11
  %18 = call ptr @strcpy(ptr noundef nonnull dereferenceable(1) %4, ptr noundef nonnull dereferenceable(1) %0) #21
  %19 = call ptr @JVM_NativePath(ptr noundef nonnull %4) #21
  %20 = load ptr, ptr @zfiles_lock, align 8
  %21 = call i32 @JVM_RawMonitorEnter(ptr noundef %20) #21
  %.029 = load ptr, ptr @zfiles, align 8
  %.not2130 = icmp eq ptr %.029, null
  br i1 %.not2130, label %.loopexit, label %.lr.ph

.lr.ph:                                           ; preds = %17, %37
  %.031 = phi ptr [ %.0, %37 ], [ %.029, %17 ]
  %22 = load ptr, ptr %.031, align 8
  %23 = call i32 @strcmp(ptr noundef nonnull dereferenceable(1) %4, ptr noundef nonnull dereferenceable(1) %22) #23
  %24 = icmp eq i32 %23, 0
  br i1 %24, label %25, label %37

25:                                               ; preds = %.lr.ph
  %26 = getelementptr inbounds i8, ptr %.031, i64 176
  %27 = load i64, ptr %26, align 8
  %28 = icmp eq i64 %27, %2
  %29 = icmp eq i64 %27, 0
  %or.cond = or i1 %28, %29
  br i1 %or.cond, label %30, label %37

30:                                               ; preds = %25
  %31 = getelementptr inbounds i8, ptr %.031, i64 8
  %32 = load i32, ptr %31, align 8
  %33 = icmp slt i32 %32, 65535
  br i1 %33, label %34, label %37

34:                                               ; preds = %30
  %35 = getelementptr inbounds i8, ptr %.031, i64 8
  %36 = add nsw i32 %32, 1
  store i32 %36, ptr %35, align 8
  br label %.loopexit

37:                                               ; preds = %25, %.lr.ph, %30
  %38 = getelementptr inbounds i8, ptr %.031, i64 144
  %.0 = load ptr, ptr %38, align 8
  %.not21 = icmp eq ptr %.0, null
  br i1 %.not21, label %.loopexit, label %.lr.ph, !llvm.loop !6

.loopexit:                                        ; preds = %37, %17, %34
  %.026 = phi ptr [ %.031, %34 ], [ null, %17 ], [ null, %37 ]
  %39 = load ptr, ptr @zfiles_lock, align 8
  call void @JVM_RawMonitorExit(ptr noundef %39) #21
  br label %InitializeZip.exit

InitializeZip.exit:                               ; preds = %11, %6, %16, %.loopexit
  %.016 = phi ptr [ %.026, %.loopexit ], [ null, %16 ], [ null, %6 ], [ null, %11 ]
  ret ptr %.016
}